; ModuleID = '23/1118.c'
source_filename = "23/1118.c"
target datalayout = "e-m:e-p270:32:32-p271:32:32-p272:64:64-i64:64-f80:128-n8:16:32:64-S128"
target triple = "x86_64-pc-linux-gnu"

@.str = private unnamed_addr constant [3 x i8] c"%c\00", align 1
@.str.1 = private unnamed_addr constant [2 x i8] c" \00", align 1

; Function Attrs: noinline nounwind uwtable
define dso_local void @main() #0 {
  %1 = alloca i32, align 4
  %2 = alloca i32, align 4
  %3 = alloca i32, align 4
  %4 = alloca [10000 x i8], align 16
  %5 = alloca i8*, align 8
  %6 = getelementptr inbounds [10000 x i8], [10000 x i8]* %4, i64 0, i64 0
  store i8* %6, i8** %5, align 8
  %7 = load i8*, i8** %5, align 8
  %8 = call i32 (i8*, ...) bitcast (i32 (...)* @gets to i32 (i8*, ...)*)(i8* %7)
  %9 = load i8*, i8** %5, align 8
  %10 = call i64 @strlen(i8* %9) #3
  %11 = trunc i64 %10 to i32
  store i32 %11, i32* %1, align 4
  %12 = load i8*, i8** %5, align 8
  %13 = load i32, i32* %1, align 4
  %14 = sext i32 %13 to i64
  %15 = getelementptr inbounds i8, i8* %12, i64 %14
  store i8 32, i8* %15, align 1
  %16 = load i32, i32* %1, align 4
  %17 = sub nsw i32 %16, 1
  store i32 %17, i32* %2, align 4
  br label %18

18:                                               ; preds = %54, %0
  %19 = load i32, i32* %2, align 4
  %20 = icmp sge i32 %19, 0
  br i1 %20, label %21, label %57

21:                                               ; preds = %18
  %22 = load i8*, i8** %5, align 8
  %23 = load i32, i32* %2, align 4
  %24 = sext i32 %23 to i64
  %25 = getelementptr inbounds i8, i8* %22, i64 %24
  %26 = load i8, i8* %25, align 1
  %27 = sext i8 %26 to i32
  %28 = icmp eq i32 %27, 32
  br i1 %28, label %29, label %53

29:                                               ; preds = %21
  %30 = load i32, i32* %2, align 4
  %31 = add nsw i32 %30, 1
  store i32 %31, i32* %3, align 4
  br label %32

32:                                               ; preds = %48, %29
  %33 = load i8*, i8** %5, align 8
  %34 = load i32, i32* %3, align 4
  %35 = sext i32 %34 to i64
  %36 = getelementptr inbounds i8, i8* %33, i64 %35
  %37 = load i8, i8* %36, align 1
  %38 = sext i8 %37 to i32
  %39 = icmp ne i32 %38, 32
  br i1 %39, label %40, label %51

40:                                               ; preds = %32
  %41 = load i8*, i8** %5, align 8
  %42 = load i32, i32* %3, align 4
  %43 = sext i32 %42 to i64
  %44 = getelementptr inbounds i8, i8* %41, i64 %43
  %45 = load i8, i8* %44, align 1
  %46 = sext i8 %45 to i32
  %47 = call i32 (i8*, ...) @printf(i8* getelementptr inbounds ([3 x i8], [3 x i8]* @.str, i64 0, i64 0), i32 %46)
  br label %48

48:                                               ; preds = %40
  %49 = load i32, i32* %3, align 4
  %50 = add nsw i32 %49, 1
  store i32 %50, i32* %3, align 4
  br label %32

51:                                               ; preds = %32
  %52 = call i32 (i8*, ...) @printf(i8* getelementptr inbounds ([2 x i8], [2 x i8]* @.str.1, i64 0, i64 0))
  br label %53

53:                                               ; preds = %51, %21
  br label %54

54:                                               ; preds = %53
  %55 = load i32, i32* %2, align 4
  %56 = add nsw i32 %55, -1
  store i32 %56, i32* %2, align 4
  br label %18

57:                                               ; preds = %18
  store i32 0, i32* %3, align 4
  br label %58

58:                                               ; preds = %74, %57
  %59 = load i8*, i8** %5, align 8
  %60 = load i32, i32* %3, align 4
  %61 = sext i32 %60 to i64
  %62 = getelementptr inbounds i8, i8* %59, i64 %61
  %63 = load i8, i8* %62, align 1
  %64 = sext i8 %63 to i32
  %65 = icmp ne i32 %64, 32
  br i1 %65, label %66, label %77

66:                                               ; preds = %58
  %67 = load i8*, i8** %5, align 8
  %68 = load i32, i32* %3, align 4
  %69 = sext i32 %68 to i64
  %70 = getelementptr inbounds i8, i8* %67, i64 %69
  %71 = load i8, i8* %70, align 1
  %72 = sext i8 %71 to i32
  %73 = call i32 (i8*, ...) @printf(i8* getelementptr inbounds ([3 x i8], [3 x i8]* @.str, i64 0, i64 0), i32 %72)
  br label %74

74:                                               ; preds = %66
  %75 = load i32, i32* %3, align 4
  %76 = add nsw i32 %75, 1
  store i32 %76, i32* %3, align 4
  br label %58

77:                                               ; preds = %58
  ret void
}

declare dso_local i32 @gets(...) #1

; Function Attrs: nounwind readonly
declare dso_local i64 @strlen(i8*) #2

declare dso_local i32 @printf(i8*, ...) #1


!llvm.module.flags = !{!0}
!llvm.ident = !{!1}

!0 = !{i32 1, !"wchar_size", i32 4}
!1 = !{!"clang version 10.0.0-4ubuntu1 "}
